target datalayout = "e-m:e-p270:32:32-p271:32:32-p272:64:64-i64:64-i128:128-f80:128-n8:16:32:64-S128"
target triple = "x86_64-pc-linux-gnu"

%class.LogTagSet = type { ptr, i64, [5 x i32], [4 x i8], %class.LogOutputList, %class.LogDecorators, ptr }
%class.LogOutputList = type <{ [6 x ptr], i32, [4 x i8] }>
%class.LogDecorators = type { i32 }
%class.nmethod = type <{ %class.CodeBlob.base, [2 x i8], i64, i64, ptr, %union.anon, ptr, ptr, ptr, ptr, ptr, ptr, ptr, i16, i16, i32, i32, i32, i32, i32, i32, i32, i16, i16, i16, i16, i16, i16, i32, i32, i32, i32, i32, i8, i8, i8, i8, i8, i8, [2 x i8] }>
%class.CodeBlob.base = type <{ ptr, ptr, ptr, i32, i32, i32, i32, i32, i32, i16, i16, i8, i8 }>
%union.anon = type { ptr }
%class.BarrierSet = type { ptr, %class.FakeRttiSupport, ptr, ptr, ptr, ptr, ptr }
%class.FakeRttiSupport = type <{ i64, i32, [4 x i8] }>
%"struct.Atomic::PlatformAdd" = type { i8 }

@DeoptimizeNMethodBarriersALot = external global i8, align 1
@_ZZN17BarrierSetNMethod26nmethod_stub_entry_barrierEPPhE7counter = internal global i32 0, align 4
@.str.6 = private unnamed_addr constant [31 x i8] c"Deoptimizing nmethod: 0x%016lx\00", align 1
@_ZN16LogTagSetMappingILN6LogTag4typeE94ELS1_8ELS1_0ELS1_0ELS1_0ELS1_0EE7_tagsetE = linkonce_odr hidden global %class.LogTagSet zeroinitializer, comdat, align 8
@_ZN10BarrierSet12_barrier_setE = external global ptr, align 8
@_ZN19Abstract_VM_Version9_featuresE = external global i64, align 8

; Function Attrs: mustprogress nounwind uwtable
define linkonce_odr hidden noundef i32 @_ZNK6Atomic11PlatformAddILm4EE14fetch_then_addIjjEET_PVS3_T0_19atomic_memory_order(ptr noundef nonnull align 1 dereferenceable(1) %0, ptr noundef %1, i32 noundef %2, i32 noundef %3) #1 comdat align 2 {
  %5 = alloca ptr, align 8
  %6 = alloca ptr, align 8
  %7 = alloca i32, align 4
  %8 = alloca i32, align 4
  %9 = alloca i32, align 4
  store ptr %0, ptr %5, align 8
  store ptr %1, ptr %6, align 8
  store i32 %2, ptr %7, align 4
  store i32 %3, ptr %8, align 4
  %10 = load i32, ptr %7, align 4
  %11 = load ptr, ptr %6, align 8
  %12 = call i32 asm sideeffect "lock xaddl $0,($2)", "=r,0,r,~{cc},~{memory},~{dirflag},~{fpsr},~{flags}"(i32 %10, ptr %11) #8, !srcloc !14
  store i32 %12, ptr %9, align 4
  %13 = load i32, ptr %9, align 4
  ret i32 %13
}

; Function Attrs: mustprogress nounwind uwtable
define linkonce_odr hidden noundef zeroext i1 @_ZNK13LogOutputList8is_levelEN8LogLevel4typeE(ptr noundef nonnull align 8 dereferenceable(52) %0, i32 noundef %1) #1 comdat align 2 {
  %3 = alloca ptr, align 8
  %4 = alloca i32, align 4
  store ptr %0, ptr %3, align 8
  store i32 %1, ptr %4, align 4
  %5 = load ptr, ptr %3, align 8
  %6 = getelementptr inbounds %class.LogOutputList, ptr %5, i32 0, i32 0
  %7 = load i32, ptr %4, align 4
  %8 = zext i32 %7 to i64
  %9 = getelementptr inbounds [6 x ptr], ptr %6, i64 0, i64 %8
  %10 = load volatile ptr, ptr %9, align 8
  %11 = icmp ne ptr %10, null
  ret i1 %11
}

; Function Attrs: mustprogress nounwind uwtable
define linkonce_odr hidden noundef i32 @_ZNK6Atomic11PlatformAddILm4EE14add_then_fetchIjjEET_PVS3_T0_19atomic_memory_order(ptr noundef nonnull align 1 dereferenceable(1) %0, ptr noundef %1, i32 noundef %2, i32 noundef %3) #1 comdat align 2 {
  %5 = alloca ptr, align 8
  %6 = alloca ptr, align 8
  %7 = alloca i32, align 4
  %8 = alloca i32, align 4
  store ptr %0, ptr %5, align 8
  store ptr %1, ptr %6, align 8
  store i32 %2, ptr %7, align 4
  store i32 %3, ptr %8, align 4
  %9 = load ptr, ptr %5, align 8
  %10 = load ptr, ptr %6, align 8
  %11 = load i32, ptr %7, align 4
  %12 = load i32, ptr %8, align 4
  %13 = call noundef i32 @_ZNK6Atomic11PlatformAddILm4EE14fetch_then_addIjjEET_PVS3_T0_19atomic_memory_order(ptr noundef nonnull align 1 dereferenceable(1) %9, ptr noundef %10, i32 noundef %11, i32 noundef %12)
  %14 = load i32, ptr %7, align 4
  %15 = add i32 %13, %14
  ret i32 %15
}

; Function Attrs: mustprogress nounwind uwtable
define linkonce_odr hidden noundef zeroext i1 @_ZN10VM_Version18supports_serializeEv() #1 comdat align 2 {
  %1 = load i64, ptr @_ZN19Abstract_VM_Version9_featuresE, align 8
  %2 = and i64 %1, 140737488355328
  %3 = icmp ne i64 %2, 0
  ret i1 %3
}

; Function Attrs: mustprogress nounwind uwtable
define linkonce_odr hidden noundef zeroext i1 @_ZNK9LogTagSet8is_levelEN8LogLevel4typeE(ptr noundef nonnull align 8 dereferenceable(112) %0, i32 noundef %1) #1 comdat align 2 {
  %3 = alloca ptr, align 8
  %4 = alloca i32, align 4
  store ptr %0, ptr %3, align 8
  store i32 %1, ptr %4, align 4
  %5 = load ptr, ptr %3, align 8
  %6 = getelementptr inbounds %class.LogTagSet, ptr %5, i32 0, i32 4
  %7 = load i32, ptr %4, align 4
  %8 = call noundef zeroext i1 @_ZNK13LogOutputList8is_levelEN8LogLevel4typeE(ptr noundef nonnull align 8 dereferenceable(52) %6, i32 noundef %7)
  ret i1 %8
}

; Function Attrs: mustprogress nounwind uwtable
define linkonce_odr hidden noundef nonnull align 8 dereferenceable(112) ptr @_ZN16LogTagSetMappingILN6LogTag4typeE94ELS1_8ELS1_0ELS1_0ELS1_0ELS1_0EE6tagsetEv() #1 comdat align 2 {
  ret ptr @_ZN16LogTagSetMappingILN6LogTag4typeE94ELS1_8ELS1_0ELS1_0ELS1_0ELS1_0EE7_tagsetE
}

; Function Attrs: mustprogress nounwind uwtable
define linkonce_odr hidden noundef i32 @_ZN6Atomic7AddImplIjjvE14add_then_fetchEPVjj19atomic_memory_order(ptr noundef %0, i32 noundef %1, i32 noundef %2) #1 comdat align 2 {
  %4 = alloca ptr, align 8
  %5 = alloca i32, align 4
  %6 = alloca i32, align 4
  %7 = alloca i32, align 4
  %8 = alloca %"struct.Atomic::PlatformAdd", align 1
  store ptr %0, ptr %4, align 8
  store i32 %1, ptr %5, align 4
  store i32 %2, ptr %6, align 4
  %9 = load i32, ptr %5, align 4
  store i32 %9, ptr %7, align 4
  %10 = load ptr, ptr %4, align 8
  %11 = load i32, ptr %7, align 4
  %12 = load i32, ptr %6, align 4
  %13 = call noundef i32 @_ZNK6Atomic11PlatformAddILm4EE14add_then_fetchIjjEET_PVS3_T0_19atomic_memory_order(ptr noundef nonnull align 1 dereferenceable(1) %8, ptr noundef %10, i32 noundef %11, i32 noundef %12)
  ret i32 %13
}

; Function Attrs: mustprogress nounwind uwtable
define linkonce_odr hidden void @_ZN11OrderAccess25cross_modify_fence_verifyEv() #1 comdat align 2 {
  ret void
}

; Function Attrs: mustprogress nounwind uwtable
define linkonce_odr hidden void @_ZN11OrderAccess23cross_modify_fence_implEv() #1 comdat align 2 {
  %1 = alloca i32, align 4
  %2 = call noundef zeroext i1 @_ZN10VM_Version18supports_serializeEv()
  br i1 %2, label %3, label %4

3:                                                ; preds = %0
  call void asm sideeffect ".byte 0x0f, 0x01, 0xe8\0A\09", "~{dirflag},~{fpsr},~{flags}"() #8, !srcloc !12
  br label %7

4:                                                ; preds = %0
  store i32 0, ptr %1, align 4
  %5 = load i32, ptr %1, align 4
  %6 = call i32 asm sideeffect "cpuid ", "={ax},0,~{ebx},~{ecx},~{edx},~{memory},~{dirflag},~{fpsr},~{flags}"(i32 %5) #8, !srcloc !13
  store i32 %6, ptr %1, align 4
  br label %7

7:                                                ; preds = %4, %3
  ret void
}

; Function Attrs: mustprogress nounwind uwtable
define linkonce_odr hidden noundef i64 @_Z3p2iPVKv(ptr noundef %0) #1 comdat {
  %2 = alloca ptr, align 8
  store ptr %0, ptr %2, align 8
  %3 = load ptr, ptr %2, align 8
  %4 = ptrtoint ptr %3 to i64
  ret i64 %4
}

; Function Attrs: mustprogress nounwind uwtable
define linkonce_odr hidden noundef zeroext i1 @_ZN7LogImplILN6LogTag4typeE94ELS1_8ELS1_0ELS1_0ELS1_0ELS1_0EE8is_levelEN8LogLevel4typeE(i32 noundef %0) #1 comdat align 2 {
  %2 = alloca i32, align 4
  store i32 %0, ptr %2, align 4
  %3 = call noundef nonnull align 8 dereferenceable(112) ptr @_ZN16LogTagSetMappingILN6LogTag4typeE94ELS1_8ELS1_0ELS1_0ELS1_0ELS1_0EE6tagsetEv()
  %4 = load i32, ptr %2, align 4
  %5 = call noundef zeroext i1 @_ZNK9LogTagSet8is_levelEN8LogLevel4typeE(ptr noundef nonnull align 8 dereferenceable(112) %3, i32 noundef %4)
  ret i1 %5
}

; Function Attrs: mustprogress nounwind uwtable
define linkonce_odr hidden noundef i32 @_ZN6Atomic3addIjjEET_PVS1_T0_19atomic_memory_order(ptr noundef %0, i32 noundef %1, i32 noundef %2) #1 comdat align 2 {
  %4 = alloca ptr, align 8
  %5 = alloca i32, align 4
  %6 = alloca i32, align 4
  store ptr %0, ptr %4, align 8
  store i32 %1, ptr %5, align 4
  store i32 %2, ptr %6, align 4
  %7 = load ptr, ptr %4, align 8
  %8 = load i32, ptr %5, align 4
  %9 = load i32, ptr %6, align 4
  %10 = call noundef i32 @_ZN6Atomic7AddImplIjjvE14add_then_fetchEPVjj19atomic_memory_order(ptr noundef %7, i32 noundef %8, i32 noundef %9)
  ret i32 %10
}

; Function Attrs: mustprogress nounwind uwtable
define linkonce_odr hidden noundef zeroext i1 @_ZNK7nmethod13is_osr_methodEv(ptr noundef nonnull align 8 dereferenceable(214) %0) #1 comdat align 2 {
  %2 = alloca ptr, align 8
  store ptr %0, ptr %2, align 8
  %3 = load ptr, ptr %2, align 8
  %4 = getelementptr inbounds %class.nmethod, ptr %3, i32 0, i32 15
  %5 = load i32, ptr %4, align 4
  %6 = icmp ne i32 %5, -1
  ret i1 %6
}

; Function Attrs: mustprogress nounwind uwtable
define linkonce_odr hidden void @_ZN11OrderAccess18cross_modify_fenceEv() #1 comdat align 2 {
  call void @_ZN11OrderAccess23cross_modify_fence_implEv()
  call void @_ZN11OrderAccess25cross_modify_fence_verifyEv()
  ret void
}

; Function Attrs: mustprogress nounwind uwtable
define linkonce_odr hidden noundef ptr @_ZN10BarrierSet19barrier_set_nmethodEv(ptr noundef nonnull align 8 dereferenceable(64) %0) #1 comdat align 2 {
  %2 = alloca ptr, align 8
  store ptr %0, ptr %2, align 8
  %3 = load ptr, ptr %2, align 8
  %4 = getelementptr inbounds %class.BarrierSet, ptr %3, i32 0, i32 5
  %5 = load ptr, ptr %4, align 8
  ret ptr %5
}

; Function Attrs: mustprogress nounwind uwtable
define linkonce_odr hidden noundef ptr @_ZN10BarrierSet11barrier_setEv() #1 comdat align 2 {
  %1 = load ptr, ptr @_ZN10BarrierSet12_barrier_setE, align 8
  ret ptr %1
}

; Function Attrs: mustprogress nounwind uwtable
define linkonce_odr hidden noundef ptr @_ZN8CodeBlob10as_nmethodEv(ptr noundef nonnull align 8 dereferenceable(54) %0) #1 comdat align 2 {
  %2 = alloca ptr, align 8
  store ptr %0, ptr %2, align 8
  %3 = load ptr, ptr %2, align 8
  ret ptr %3
}

; Function Attrs: mustprogress nounwind uwtable
define hidden noundef i32 @_ZN17BarrierSetNMethod26nmethod_stub_entry_barrierEPPh(ptr noundef %0) #1 align 2 {
  %2 = alloca ptr, align 8
  %3 = alloca ptr, align 8
  %4 = alloca ptr, align 8
  %5 = alloca ptr, align 8
  %6 = alloca ptr, align 8
  %7 = alloca i8, align 1
  store ptr %0, ptr %2, align 8
  %8 = load ptr, ptr %2, align 8
  %9 = load ptr, ptr %8, align 8
  store ptr %9, ptr %3, align 8
  %10 = load ptr, ptr %3, align 8
  %11 = call noundef ptr @_ZN9CodeCache9find_blobEPv(ptr noundef %10)
  store ptr %11, ptr %4, align 8
  %12 = load ptr, ptr %4, align 8
  %13 = call noundef ptr @_ZN8CodeBlob10as_nmethodEv(ptr noundef nonnull align 8 dereferenceable(54) %12)
  store ptr %13, ptr %5, align 8
  %14 = call noundef ptr @_ZN10BarrierSet11barrier_setEv()
  %15 = call noundef ptr @_ZN10BarrierSet19barrier_set_nmethodEv(ptr noundef nonnull align 8 dereferenceable(64) %14)
  store ptr %15, ptr %6, align 8
  %16 = load ptr, ptr %6, align 8
  %17 = load ptr, ptr %5, align 8
  %18 = load ptr, ptr %16, align 8
  %19 = getelementptr inbounds ptr, ptr %18, i64 0
  %20 = load ptr, ptr %19, align 8
  %21 = call noundef zeroext i1 %20(ptr noundef nonnull align 8 dereferenceable(12) %16, ptr noundef %17)
  %22 = zext i1 %21 to i8
  store i8 %22, ptr %7, align 1
  call void @_ZN11OrderAccess18cross_modify_fenceEv()
  %23 = load i8, ptr @DeoptimizeNMethodBarriersALot, align 1
  %24 = trunc i8 %23 to i1
  br i1 %24, label %25, label %34

25:                                               ; preds = %1
  %26 = load ptr, ptr %5, align 8
  %27 = call noundef zeroext i1 @_ZNK7nmethod13is_osr_methodEv(ptr noundef nonnull align 8 dereferenceable(214) %26)
  br i1 %27, label %34, label %28

28:                                               ; preds = %25
  %29 = call noundef i32 @_ZN6Atomic3addIjjEET_PVS1_T0_19atomic_memory_order(ptr noundef @_ZZN17BarrierSetNMethod26nmethod_stub_entry_barrierEPPhE7counter, i32 noundef 1, i32 noundef 8)
  %30 = urem i32 %29, 10
  %31 = icmp eq i32 %30, 0
  br i1 %31, label %32, label %33

32:                                               ; preds = %28
  store i8 0, ptr %7, align 1
  br label %33

33:                                               ; preds = %32, %28
  br label %34

34:                                               ; preds = %33, %25, %1
  %35 = load i8, ptr %7, align 1
  %36 = trunc i8 %35 to i1
  br i1 %36, label %47, label %37

37:                                               ; preds = %34
  %38 = call noundef zeroext i1 @_ZN7LogImplILN6LogTag4typeE94ELS1_8ELS1_0ELS1_0ELS1_0ELS1_0EE8is_levelEN8LogLevel4typeE(i32 noundef 1)
  br i1 %38, label %40, label %39

39:                                               ; preds = %37
  br label %43

40:                                               ; preds = %37
  %41 = load ptr, ptr %5, align 8
  %42 = call noundef i64 @_Z3p2iPVKv(ptr noundef %41)
  call void (ptr, ...) @_ZN7LogImplILN6LogTag4typeE94ELS1_8ELS1_0ELS1_0ELS1_0ELS1_0EE5writeILN8LogLevel4typeE1EEEvPKcz(ptr noundef @.str.6, i64 noundef %42)
  br label %43

43:                                               ; preds = %40, %39
  %44 = load ptr, ptr %6, align 8
  %45 = load ptr, ptr %5, align 8
  %46 = load ptr, ptr %2, align 8
  call void @_ZN17BarrierSetNMethod10deoptimizeEP7nmethodPPh(ptr noundef nonnull align 8 dereferenceable(12) %44, ptr noundef %45, ptr noundef %46)
  br label %47

47:                                               ; preds = %43, %34
  %48 = load i8, ptr %7, align 1
  %49 = trunc i8 %48 to i1
  %50 = select i1 %49, i32 0, i32 1
  ret i32 %50
}