; Function Attrs: mustprogress nounwind uwtable
define hidden noundef range(i32 0, 2) i32 @_ZN17BarrierSetNMethod26nmethod_stub_entry_barrierEPPh(ptr noundef %0) local_unnamed_addr #0 align 2 {
  %2 = load ptr, ptr %0, align 8
  %3 = tail call noundef ptr @_ZN9CodeCache9find_blobEPv(ptr noundef %2) #8
  %4 = load ptr, ptr @_ZN10BarrierSet12_barrier_setE, align 8
  %5 = getelementptr inbounds i8, ptr %4, i64 48
  %6 = load ptr, ptr %5, align 8
  %7 = load ptr, ptr %6, align 8
  %8 = load ptr, ptr %7, align 8
  %9 = tail call noundef zeroext i1 %8(ptr noundef nonnull align 8 dereferenceable(12) %6, ptr noundef %3) #8
  %10 = load i64, ptr @_ZN19Abstract_VM_Version9_featuresE, align 8
  %11 = and i64 %10, 140737488355328
  %.not.i.i = icmp eq i64 %11, 0
  br i1 %.not.i.i, label %13, label %12

12:                                               ; preds = %1
  tail call void asm sideeffect ".byte 0x0f, 0x01, 0xe8\0A\09", "~{dirflag},~{fpsr},~{flags}"() #8, !srcloc !6
  br label %_ZN11OrderAccess18cross_modify_fenceEv.exit

13:                                               ; preds = %1
  %14 = tail call i32 asm sideeffect "cpuid ", "={ax},0,~{ebx},~{ecx},~{edx},~{memory},~{dirflag},~{fpsr},~{flags}"(i32 0) #8, !srcloc !7
  br label %_ZN11OrderAccess18cross_modify_fenceEv.exit

_ZN11OrderAccess18cross_modify_fenceEv.exit:      ; preds = %12, %13
  %15 = load i8, ptr @DeoptimizeNMethodBarriersALot, align 1
  %16 = trunc i8 %15 to i1
  br i1 %16, label %17, label %25

17:                                               ; preds = %_ZN11OrderAccess18cross_modify_fenceEv.exit
  %18 = getelementptr inbounds i8, ptr %3, i64 148
  %19 = load i32, ptr %18, align 4
  %.not = icmp eq i32 %19, -1
  br i1 %.not, label %20, label %25

20:                                               ; preds = %17
  %21 = tail call noundef i32 asm sideeffect "lock xaddl $0,($2)", "=r,0,r,~{cc},~{memory},~{dirflag},~{fpsr},~{flags}"(i32 1, ptr nonnull @_ZZN17BarrierSetNMethod26nmethod_stub_entry_barrierEPPhE7counter) #8, !srcloc !8
  %22 = add i32 %21, 1
  %23 = urem i32 %22, 10
  %24 = icmp ne i32 %23, 0
  %spec.select = and i1 %9, %24
  br i1 %spec.select, label %31, label %26

25:                                               ; preds = %17, %_ZN11OrderAccess18cross_modify_fenceEv.exit
  br i1 %9, label %31, label %26

26:                                               ; preds = %20, %25
  %27 = load volatile ptr, ptr getelementptr inbounds (i8, ptr @_ZN16LogTagSetMappingILN6LogTag4typeE94ELS1_8ELS1_0ELS1_0ELS1_0ELS1_0EE7_tagsetE, i64 48), align 8
  %.not13 = icmp eq ptr %27, null
  br i1 %.not13, label %30, label %28

28:                                               ; preds = %26
  %29 = ptrtoint ptr %3 to i64
  tail call void (ptr, ...) @_ZN7LogImplILN6LogTag4typeE94ELS1_8ELS1_0ELS1_0ELS1_0ELS1_0EE5writeILN8LogLevel4typeE1EEEvPKcz(ptr noundef nonnull @.str.6, i64 noundef %29)
  br label %30

30:                                               ; preds = %26, %28
  tail call void @_ZN17BarrierSetNMethod10deoptimizeEP7nmethodPPh(ptr noundef nonnull align 8 dereferenceable(12) %6, ptr noundef %3, ptr noundef nonnull %0) #8
  br label %31

31:                                               ; preds = %20, %30, %25
  %not..0.shrunk = phi i32 [ 0, %20 ], [ 1, %30 ], [ 0, %25 ]
  ret i32 %not..0.shrunk
}